Certificate:
    Data:
        Version: 3 (0x2)
        Serial Number: 16003589278561938907 (0xde182ba87fef2ddb)
    Signature Algorithm: sha256WithRSAEncryption
        Issuer: CN=percona-cacert, C=US, ST=NC, L=Raleigh, O=Percona
        Validity
            Not Before: Jul 13 15:02:27 2017 GMT
            Not After : Jul  8 15:02:27 2037 GMT
        Subject: CN=percona-cacert, C=US, ST=NC, L=Raleigh, O=Percona
        Subject Public Key Info:
            Public Key Algorithm: rsaEncryption
                Public-Key: (2048 bit)
                Modulus:
                    00:d9:c8:88:3c:c8:61:ec:2f:51:09:aa:83:12:02:
                    14:fa:7f:38:3c:62:38:8f:ac:34:1c:3d:34:fa:6f:
                    25:a6:12:19:5b:e7:48:28:f2:dc:5e:26:cf:b1:2d:
                    ec:d0:04:a2:23:25:b1:0e:25:d1:e8:ef:36:28:89:
                    05:f3:73:a2:1e:e3:bb:7e:dc:0b:d8:46:e4:3f:6b:
                    23:58:20:df:c0:2f:90:6e:05:41:0f:92:42:c4:dc:
                    b5:cb:33:a5:76:58:13:ec:ef:27:7f:59:4e:45:f8:
                    c7:6f:74:00:5d:a2:3f:a0:61:14:8b:26:b9:59:18:
                    1c:9f:41:10:79:7b:23:aa:91:f5:92:3f:1e:7b:42:
                    d3:2c:0c:64:bc:4f:3a:b6:37:e5:44:39:ce:a9:7b:
                    04:7e:ca:55:34:ea:cc:d2:1b:c4:81:06:83:06:aa:
                    c6:44:30:d5:e9:35:95:ec:de:11:af:92:1d:f1:c6:
                    57:e7:11:5e:a1:2f:ef:d7:03:d8:57:cc:d5:ec:93:
                    0e:cf:73:a3:64:19:04:eb:16:39:d2:d3:9c:4e:38:
                    18:9b:90:63:6a:84:ba:ec:cc:3a:8c:af:d2:af:64:
                    24:e0:8e:d3:6e:e3:b6:da:2a:9f:8f:8c:62:94:a7:
                    07:e7:95:50:19:ad:8a:cb:35:0b:4c:be:f6:94:0b:
                    24:b9
                Exponent: 65537 (0x10001)
        X509v3 extensions:
            X509v3 Subject Key Identifier: 
                08:6C:F8:39:4C:8D:99:04:8C:D7:22:0E:C8:59:7A:46:56:06:40:53
            X509v3 Authority Key Identifier: 
                keyid:08:6C:F8:39:4C:8D:99:04:8C:D7:22:0E:C8:59:7A:46:56:06:40:53

            X509v3 Basic Constraints: 
                CA:TRUE
    Signature Algorithm: sha256WithRSAEncryption
         7a:e5:50:22:e5:77:ed:5f:a0:ab:cf:53:9c:9d:67:4a:d6:e4:
         a0:e8:d1:87:b3:14:ee:67:97:f2:ac:46:8f:0e:54:e9:46:bf:
         fc:fc:58:96:53:43:9c:b1:34:34:08:e1:b3:a9:7a:28:00:0e:
         d1:e3:f1:b8:0e:45:d5:34:dd:59:8b:55:0f:d1:a1:36:02:1f:
         e4:9d:0f:38:67:ac:ab:27:b2:94:e8:09:a9:32:84:06:ce:11:
         21:6d:41:7c:d3:7a:5b:a8:3f:58:8b:56:df:86:9e:01:ad:9b:
         75:3c:c2:89:7f:6a:17:95:eb:0a:ed:72:dd:8f:7e:27:fe:38:
         1a:33:3f:55:d7:9e:b6:d1:89:58:38:9f:1c:b6:d2:aa:10:05:
         31:89:23:6f:56:45:22:20:aa:8e:4d:bd:8c:ac:34:3d:b4:5a:
         6b:88:42:23:35:54:f7:28:79:1a:48:15:37:ce:9b:ca:d0:22:
         30:cd:b9:f5:e2:fd:98:00:5f:f2:07:62:35:1c:d5:99:fc:ff:
         b0:ae:ce:bc:01:d6:53:ea:c0:f0:6b:39:a8:e1:4c:66:c7:f9:
         24:b8:79:3d:ac:ab:6b:15:40:31:30:80:77:9c:c1:df:81:f8:
         cf:d0:75:cb:24:16:97:18:1d:dd:71:a6:fe:83:65:61:d1:e2:
         f3:e7:26:82
-----BEGIN CERTIFICATE-----
MIIDgTCCAmmgAwIBAgIJAN4YK6h/7y3bMA0GCSqGSIb3DQEBCwUAMFcxFzAVBgNV
BAMMDnBlcmNvbmEtY2FjZXJ0MQswCQYDVQQGEwJVUzELMAkGA1UECAwCTkMxEDAO
BgNVBAcMB1JhbGVpZ2gxEDAOBgNVBAoMB1BlcmNvbmEwHhcNMTcwNzEzMTUwMjI3
WhcNMzcwNzA4MTUwMjI3WjBXMRcwFQYDVQQDDA5wZXJjb25hLWNhY2VydDELMAkG
A1UEBhMCVVMxCzAJBgNVBAgMAk5DMRAwDgYDVQQHDAdSYWxlaWdoMRAwDgYDVQQK
DAdQZXJjb25hMIIBIjANBgkqhkiG9w0BAQEFAAOCAQ8AMIIBCgKCAQEA2ciIPMhh
7C9RCaqDEgIU+n84PGI4j6w0HD00+m8lphIZW+dIKPLcXibPsS3s0ASiIyWxDiXR
6O82KIkF83OiHuO7ftwL2EbkP2sjWCDfwC+QbgVBD5JCxNy1yzOldlgT7O8nf1lO
RfjHb3QAXaI/oGEUiya5WRgcn0EQeXsjqpH1kj8ee0LTLAxkvE86tjflRDnOqXsE
fspVNOrM0hvEgQaDBqrGRDDV6TWV7N4Rr5Id8cZX5xFeoS/v1wPYV8zV7JMOz3Oj
ZBkE6xY50tOcTjgYm5BjaoS67Mw6jK/Sr2Qk4I7TbuO22iqfj4xilKcH55VQGa2K
yzULTL72lAskuQIDAQABo1AwTjAdBgNVHQ4EFgQUCGz4OUyNmQSM1yIOyFl6RlYG
QFMwHwYDVR0jBBgwFoAUCGz4OUyNmQSM1yIOyFl6RlYGQFMwDAYDVR0TBAUwAwEB
/zANBgkqhkiG9w0BAQsFAAOCAQEAeuVQIuV37V+gq89TnJ1nStbkoOjRh7MU7meX
8qxGjw5U6Ua//PxYllNDnLE0NAjhs6l6KAAO0ePxuA5F1TTdWYtVD9GhNgIf5J0P
OGesqyeylOgJqTKEBs4RIW1BfNN6W6g/WItW34aeAa2bdTzCiX9qF5XrCu1y3Y9+
J/44GjM/VdeettGJWDifHLbSqhAFMYkjb1ZFIiCqjk29jKw0PbRaa4hCIzVU9yh5
GkgVN86bytAiMM259eL9mABf8gdiNRzVmfz/sK7OvAHWU+rA8Gs5qOFMZsf5JLh5
PayraxVAMTCAd5zB34H4z9B1yyQWlxgd3XGm/oNlYdHi8+cmgg==
-----END CERTIFICATE-----
