Certificate:
    Data:
        Version: 3 (0x2)
        Serial Number: 1 (0x1)
    Signature Algorithm: sha256WithRSAEncryption
        Issuer: CN=percona-cacert, C=US, ST=NC, L=Raleigh, O=Percona
        Validity
            Not Before: Jul 13 15:02:27 2017 GMT
            Not After : Jul  8 15:02:27 2037 GMT
        Subject: C=US, ST=NC, L=Raleigh, O=Percona, CN=percona-server
        Subject Public Key Info:
            Public Key Algorithm: rsaEncryption
                Public-Key: (2048 bit)
                Modulus:
                    00:c3:42:33:7f:8b:7b:35:ab:bb:43:33:86:56:31:
                    ae:1c:d6:eb:e6:8a:df:e8:45:bd:00:2c:33:fb:17:
                    4e:2a:a7:40:3a:72:33:8f:83:fb:fb:98:0f:b9:62:
                    57:66:77:86:a9:86:41:9b:6b:c9:ea:ca:0b:b9:a3:
                    f4:3d:68:d9:9c:a0:ad:d0:3b:23:1c:ca:d5:38:73:
                    77:f1:7c:1a:50:9e:71:91:64:fb:68:14:b8:20:0f:
                    b8:a9:de:cc:3b:61:84:b3:1e:14:bb:d3:a5:32:22:
                    1e:64:7f:b9:5b:5b:cc:f9:08:38:72:ed:25:cc:2c:
                    07:23:56:47:e2:dc:f5:f0:e5:01:26:e3:ed:eb:9a:
                    ae:f0:0f:dd:1d:1f:97:fa:3c:4e:8d:e0:af:d3:96:
                    ca:b6:67:c7:55:98:60:44:de:3c:e3:62:8e:33:29:
                    56:08:99:9f:a6:ec:fc:78:f2:64:0e:84:7b:f0:e2:
                    77:85:c7:8d:61:32:e6:a6:dd:9b:92:b9:e0:f2:04:
                    22:9f:61:fe:27:39:24:87:66:fa:6d:59:66:2c:8d:
                    80:e5:e4:1e:1e:b4:80:64:e9:32:17:ef:33:62:3e:
                    a8:01:ff:ad:51:a3:6a:be:5c:f3:bb:6e:c6:ed:9f:
                    6b:16:b3:4c:f8:d5:cf:ac:1f:f4:23:b6:39:7c:48:
                    9d:5d
                Exponent: 65537 (0x10001)
        X509v3 extensions:
            X509v3 Subject Alternative Name: 
                DNS:localhost, DNS:localhost.localdomain, IP Address:127.0.0.1, IP Address:0:0:0:0:0:0:0:1
    Signature Algorithm: sha256WithRSAEncryption
         39:17:8a:b5:f6:12:88:5a:70:8d:84:0c:d7:f9:c4:26:90:7c:
         68:33:63:af:28:b3:f0:73:15:94:fb:ec:f1:ba:74:74:d2:d0:
         f4:1e:ec:fe:f5:53:11:c9:41:16:02:a9:ad:10:94:3f:1f:e0:
         04:c2:87:aa:8a:65:87:1d:7c:52:de:3c:54:e4:9b:19:93:dd:
         a2:fc:19:25:f7:96:86:e4:55:a8:3e:21:da:59:b9:34:1e:71:
         5c:90:08:86:07:ed:a4:5a:8a:b0:87:1c:0b:0c:16:f1:6b:30:
         ae:5c:9c:b8:73:52:d4:1a:da:37:c6:44:1e:57:ab:22:e7:9b:
         c3:bd:e2:fe:5e:61:0d:22:d4:8e:4f:92:c2:b8:e9:e7:c8:5d:
         42:53:1f:2d:4a:b5:7b:69:99:67:63:c4:01:c1:16:85:8f:54:
         d8:07:92:6b:00:43:f0:44:bf:04:6c:f3:e4:e9:fb:d6:7a:be:
         68:2a:c9:8a:19:96:7c:a7:77:b5:05:3b:5c:48:dc:ce:b9:cf:
         9b:a2:4e:ca:bf:54:21:16:8e:6c:e1:3e:9e:90:98:b8:90:bf:
         b7:c5:11:ae:73:a9:b2:7f:25:71:18:d2:46:d4:72:6b:80:49:
         f5:59:8e:20:f3:8a:81:62:fc:fb:97:b5:36:4f:13:1a:28:ee:
         51:b2:10:cf
-----BEGIN CERTIFICATE-----
MIIDcDCCAligAwIBAgIBATANBgkqhkiG9w0BAQsFADBXMRcwFQYDVQQDDA5wZXJj
b25hLWNhY2VydDELMAkGA1UEBhMCVVMxCzAJBgNVBAgMAk5DMRAwDgYDVQQHDAdS
YWxlaWdoMRAwDgYDVQQKDAdQZXJjb25hMB4XDTE3MDcxMzE1MDIyN1oXDTM3MDcw
ODE1MDIyN1owVzELMAkGA1UEBhMCVVMxCzAJBgNVBAgMAk5DMRAwDgYDVQQHDAdS
YWxlaWdoMRAwDgYDVQQKDAdQZXJjb25hMRcwFQYDVQQDDA5wZXJjb25hLXNlcnZl
cjCCASIwDQYJKoZIhvcNAQEBBQADggEPADCCAQoCggEBAMNCM3+LezWru0MzhlYx
rhzW6+aK3+hFvQAsM/sXTiqnQDpyM4+D+/uYD7liV2Z3hqmGQZtryerKC7mj9D1o
2ZygrdA7IxzK1Thzd/F8GlCecZFk+2gUuCAPuKnezDthhLMeFLvTpTIiHmR/uVtb
zPkIOHLtJcwsByNWR+Lc9fDlASbj7euarvAP3R0fl/o8To3gr9OWyrZnx1WYYETe
PONijjMpVgiZn6bs/HjyZA6Ee/Did4XHjWEy5qbdm5K54PIEIp9h/ic5JIdm+m1Z
ZiyNgOXkHh60gGTpMhfvM2I+qAH/rVGjar5c87tuxu2faxazTPjVz6wf9CO2OXxI
nV0CAwEAAaNHMEUwQwYDVR0RBDwwOoIJbG9jYWxob3N0ghVsb2NhbGhvc3QubG9j
YWxkb21haW6HBH8AAAGHEAAAAAAAAAAAAAAAAAAAAAEwDQYJKoZIhvcNAQELBQAD
ggEBADkXirX2EohacI2EDNf5xCaQfGgzY68os/BzFZT77PG6dHTS0PQe7P71UxHJ
QRYCqa0QlD8f4ATCh6qKZYcdfFLePFTkmxmT3aL8GSX3lobkVag+IdpZuTQecVyQ
CIYH7aRairCHHAsMFvFrMK5cnLhzUtQa2jfGRB5XqyLnm8O94v5eYQ0i1I5PksK4
6efIXUJTHy1KtXtpmWdjxAHBFoWPVNgHkmsAQ/BEvwRs8+Tp+9Z6vmgqyYoZlnyn
d7UFO1xI3M65z5uiTsq/VCEWjmzhPp6QmLiQv7fFEa5zqbJ/JXEY0kbUcmuASfVZ
jiDzioFi/PuXtTZPExoo7lGyEM8=
-----END CERTIFICATE-----
